target datalayout = "e-m:e-p270:32:32-p271:32:32-p272:64:64-i64:64-i128:128-f80:128-n8:16:32:64-S128"
target triple = "x86_64-pc-linux-gnu"

%struct.unaligned = type { i32 }
%struct.unaligned.0 = type { i16 }
%struct.unaligned.3 = type { i64 }

; Function Attrs: alwaysinline nounwind uwtable
define internal void @unaligned_store_u16(ptr noundef %0, i16 noundef zeroext %1) #2 {
  %3 = alloca ptr, align 8
  %4 = alloca i16, align 2
  %5 = alloca ptr, align 8
  store ptr %0, ptr %3, align 8
  store i16 %1, ptr %4, align 2
  call void @llvm.lifetime.start.p0(i64 8, ptr %5) #10
  %6 = load ptr, ptr %3, align 8
  store ptr %6, ptr %5, align 8
  %7 = load i16, ptr %4, align 2
  %8 = load ptr, ptr %5, align 8
  %9 = getelementptr inbounds nuw %struct.unaligned.0, ptr %8, i32 0, i32 0
  store i16 %7, ptr %9, align 1
  call void @llvm.lifetime.end.p0(i64 8, ptr %5) #10
  ret void
}

; Function Attrs: alwaysinline nounwind uwtable
define internal void @unaligned_store_u32(ptr noundef %0, i32 noundef %1) #2 {
  %3 = alloca ptr, align 8
  %4 = alloca i32, align 4
  %5 = alloca ptr, align 8
  store ptr %0, ptr %3, align 8
  store i32 %1, ptr %4, align 4
  call void @llvm.lifetime.start.p0(i64 8, ptr %5) #10
  %6 = load ptr, ptr %3, align 8
  store ptr %6, ptr %5, align 8
  %7 = load i32, ptr %4, align 4
  %8 = load ptr, ptr %5, align 8
  %9 = getelementptr inbounds nuw %struct.unaligned, ptr %8, i32 0, i32 0
  store i32 %7, ptr %9, align 1
  call void @llvm.lifetime.end.p0(i64 8, ptr %5) #10
  ret void
}

; Function Attrs: alwaysinline nounwind uwtable
define internal void @unaligned_store_u64a(ptr noundef %0, i64 noundef %1) #2 {
  %3 = alloca ptr, align 8
  %4 = alloca i64, align 8
  %5 = alloca ptr, align 8
  store ptr %0, ptr %3, align 8
  store i64 %1, ptr %4, align 8
  call void @llvm.lifetime.start.p0(i64 8, ptr %5) #10
  %6 = load ptr, ptr %3, align 8
  store ptr %6, ptr %5, align 8
  %7 = load i64, ptr %4, align 8
  %8 = load ptr, ptr %5, align 8
  %9 = getelementptr inbounds nuw %struct.unaligned.3, ptr %8, i32 0, i32 0
  store i64 %7, ptr %9, align 1
  call void @llvm.lifetime.end.p0(i64 8, ptr %5) #10
  ret void
}

; Function Attrs: alwaysinline nounwind uwtable
define internal i64 @_pext_u64(i64 noundef %0, i64 noundef %1) #2 {
  %3 = alloca i64, align 8
  %4 = alloca i64, align 8
  store i64 %0, ptr %3, align 8
  store i64 %1, ptr %4, align 8
  %5 = load i64, ptr %3, align 8
  %6 = load i64, ptr %4, align 8
  %7 = call i64 @llvm.x86.bmi.pext.64(i64 %5, i64 %6)
  ret i64 %7
}

; Function Attrs: alwaysinline nounwind uwtable
define internal void @partial_store_u64a(ptr noundef %0, i64 noundef %1, i32 noundef %2) #2 {
  %4 = alloca ptr, align 8
  %5 = alloca i64, align 8
  %6 = alloca i32, align 4
  store ptr %0, ptr %4, align 8
  store i64 %1, ptr %5, align 8
  store i32 %2, ptr %6, align 4
  %7 = load i32, ptr %6, align 4
  switch i32 %7, label %64 [
    i32 8, label %8
    i32 7, label %11
    i32 6, label %25
    i32 5, label %34
    i32 4, label %43
    i32 3, label %47
    i32 2, label %56
    i32 1, label %60
    i32 0, label %64
  ]

8:                                                ; preds = %3
  %9 = load ptr, ptr %4, align 8
  %10 = load i64, ptr %5, align 8
  call void @unaligned_store_u64a(ptr noundef %9, i64 noundef %10)
  br label %64

11:                                               ; preds = %3
  %12 = load ptr, ptr %4, align 8
  %13 = load i64, ptr %5, align 8
  %14 = trunc i64 %13 to i32
  call void @unaligned_store_u32(ptr noundef %12, i32 noundef %14)
  %15 = load ptr, ptr %4, align 8
  %16 = getelementptr inbounds i8, ptr %15, i64 4
  %17 = load i64, ptr %5, align 8
  %18 = lshr i64 %17, 32
  %19 = trunc i64 %18 to i16
  call void @unaligned_store_u16(ptr noundef %16, i16 noundef zeroext %19)
  %20 = load i64, ptr %5, align 8
  %21 = lshr i64 %20, 48
  %22 = trunc i64 %21 to i8
  %23 = load ptr, ptr %4, align 8
  %24 = getelementptr inbounds i8, ptr %23, i64 6
  store i8 %22, ptr %24, align 1
  br label %64

25:                                               ; preds = %3
  %26 = load ptr, ptr %4, align 8
  %27 = load i64, ptr %5, align 8
  %28 = trunc i64 %27 to i32
  call void @unaligned_store_u32(ptr noundef %26, i32 noundef %28)
  %29 = load ptr, ptr %4, align 8
  %30 = getelementptr inbounds i8, ptr %29, i64 4
  %31 = load i64, ptr %5, align 8
  %32 = lshr i64 %31, 32
  %33 = trunc i64 %32 to i16
  call void @unaligned_store_u16(ptr noundef %30, i16 noundef zeroext %33)
  br label %64

34:                                               ; preds = %3
  %35 = load ptr, ptr %4, align 8
  %36 = load i64, ptr %5, align 8
  %37 = trunc i64 %36 to i32
  call void @unaligned_store_u32(ptr noundef %35, i32 noundef %37)
  %38 = load i64, ptr %5, align 8
  %39 = lshr i64 %38, 32
  %40 = trunc i64 %39 to i8
  %41 = load ptr, ptr %4, align 8
  %42 = getelementptr inbounds i8, ptr %41, i64 4
  store i8 %40, ptr %42, align 1
  br label %64

43:                                               ; preds = %3
  %44 = load ptr, ptr %4, align 8
  %45 = load i64, ptr %5, align 8
  %46 = trunc i64 %45 to i32
  call void @unaligned_store_u32(ptr noundef %44, i32 noundef %46)
  br label %64

47:                                               ; preds = %3
  %48 = load ptr, ptr %4, align 8
  %49 = load i64, ptr %5, align 8
  %50 = trunc i64 %49 to i16
  call void @unaligned_store_u16(ptr noundef %48, i16 noundef zeroext %50)
  %51 = load i64, ptr %5, align 8
  %52 = lshr i64 %51, 16
  %53 = trunc i64 %52 to i8
  %54 = load ptr, ptr %4, align 8
  %55 = getelementptr inbounds i8, ptr %54, i64 2
  store i8 %53, ptr %55, align 1
  br label %64

56:                                               ; preds = %3
  %57 = load ptr, ptr %4, align 8
  %58 = load i64, ptr %5, align 8
  %59 = trunc i64 %58 to i16
  call void @unaligned_store_u16(ptr noundef %57, i16 noundef zeroext %59)
  br label %64

60:                                               ; preds = %3
  %61 = load i64, ptr %5, align 8
  %62 = trunc i64 %61 to i8
  %63 = load ptr, ptr %4, align 8
  store i8 %62, ptr %63, align 1
  br label %64

64:                                               ; preds = %3, %3, %60, %56, %47, %43, %34, %25, %11, %8
  ret void
}

; Function Attrs: alwaysinline nounwind uwtable
define internal i64 @compress64(i64 noundef %0, i64 noundef %1) #2 {
  %3 = alloca i64, align 8
  %4 = alloca i64, align 8
  store i64 %0, ptr %3, align 8
  store i64 %1, ptr %4, align 8
  %5 = load i64, ptr %3, align 8
  %6 = load i64, ptr %4, align 8
  %7 = call i64 @_pext_u64(i64 noundef %5, i64 noundef %6)
  ret i64 %7
}

; Function Attrs: nounwind uwtable
define hidden void @storecompressed64(ptr noundef %0, ptr noundef %1, ptr noundef %2, i32 noundef %3) #0 {
  %5 = alloca ptr, align 8
  %6 = alloca ptr, align 8
  %7 = alloca ptr, align 8
  %8 = alloca i32, align 4
  %9 = alloca i64, align 8
  store ptr %0, ptr %5, align 8
  store ptr %1, ptr %6, align 8
  store ptr %2, ptr %7, align 8
  store i32 %3, ptr %8, align 4
  call void @llvm.lifetime.start.p0(i64 8, ptr %9) #10
  %10 = load ptr, ptr %6, align 8
  %11 = load i64, ptr %10, align 8
  %12 = load ptr, ptr %7, align 8
  %13 = load i64, ptr %12, align 8
  %14 = call i64 @compress64(i64 noundef %11, i64 noundef %13)
  store i64 %14, ptr %9, align 8
  %15 = load ptr, ptr %5, align 8
  %16 = load i64, ptr %9, align 8
  %17 = load i32, ptr %8, align 4
  call void @partial_store_u64a(ptr noundef %15, i64 noundef %16, i32 noundef %17)
  call void @llvm.lifetime.end.p0(i64 8, ptr %9) #10
  ret void
}