; Function Attrs: mustprogress nofree norecurse nosync nounwind willreturn memory(argmem: readwrite) uwtable
define hidden void @storecompressed64(ptr noundef writeonly captures(none) %0, ptr noundef readonly captures(none) %1, ptr noundef readonly captures(none) %2, i32 noundef %3) local_unnamed_addr #0 {
  %5 = load i64, ptr %1, align 8
  %6 = load i64, ptr %2, align 8
  %7 = tail call i64 @llvm.x86.bmi.pext.64(i64 %5, i64 %6)
  switch i32 %3, label %partial_store_u64a.exit [
    i32 8, label %8
    i32 7, label %9
    i32 6, label %17
    i32 5, label %22
    i32 4, label %27
    i32 3, label %29
    i32 2, label %34
    i32 1, label %36
  ]

8:                                                ; preds = %4
  store i64 %7, ptr %0, align 1
  br label %partial_store_u64a.exit

9:                                                ; preds = %4
  %10 = trunc i64 %7 to i32
  store i32 %10, ptr %0, align 1
  %11 = getelementptr inbounds nuw i8, ptr %0, i64 4
  %12 = lshr i64 %7, 32
  %13 = trunc i64 %12 to i16
  store i16 %13, ptr %11, align 1
  %14 = lshr i64 %7, 48
  %15 = trunc i64 %14 to i8
  %16 = getelementptr inbounds nuw i8, ptr %0, i64 6
  store i8 %15, ptr %16, align 1
  br label %partial_store_u64a.exit

17:                                               ; preds = %4
  %18 = trunc i64 %7 to i32
  store i32 %18, ptr %0, align 1
  %19 = getelementptr inbounds nuw i8, ptr %0, i64 4
  %20 = lshr i64 %7, 32
  %21 = trunc i64 %20 to i16
  store i16 %21, ptr %19, align 1
  br label %partial_store_u64a.exit

22:                                               ; preds = %4
  %23 = trunc i64 %7 to i32
  store i32 %23, ptr %0, align 1
  %24 = lshr i64 %7, 32
  %25 = trunc i64 %24 to i8
  %26 = getelementptr inbounds nuw i8, ptr %0, i64 4
  store i8 %25, ptr %26, align 1
  br label %partial_store_u64a.exit

27:                                               ; preds = %4
  %28 = trunc i64 %7 to i32
  store i32 %28, ptr %0, align 1
  br label %partial_store_u64a.exit

29:                                               ; preds = %4
  %30 = trunc i64 %7 to i16
  store i16 %30, ptr %0, align 1
  %31 = lshr i64 %7, 16
  %32 = trunc i64 %31 to i8
  %33 = getelementptr inbounds nuw i8, ptr %0, i64 2
  store i8 %32, ptr %33, align 1
  br label %partial_store_u64a.exit

34:                                               ; preds = %4
  %35 = trunc i64 %7 to i16
  store i16 %35, ptr %0, align 1
  br label %partial_store_u64a.exit

36:                                               ; preds = %4
  %37 = trunc i64 %7 to i8
  store i8 %37, ptr %0, align 1
  br label %partial_store_u64a.exit

partial_store_u64a.exit:                          ; preds = %4, %8, %9, %17, %22, %27, %29, %34, %36
  ret void
}